; Function Attrs: mustprogress nofree nounwind memory(readwrite, inaccessiblemem: write) uwtable
define internal noundef float @_ZN5faiss12_GLOBAL__N_121ExtraDistanceComputerINS_14VectorDistanceILNS_10MetricTypeE22EEEE13symmetric_disEll(ptr nocapture noundef nonnull readonly align 8 dereferenceable(64) %0, i64 noundef %1, i64 noundef %2) unnamed_addr #18 align 2 {
  %4 = getelementptr inbounds i8, ptr %0, i64 24
  %5 = getelementptr inbounds i8, ptr %0, i64 56
  %6 = load ptr, ptr %5, align 8
  %7 = load i64, ptr %4, align 8
  %8 = mul i64 %7, %2
  %9 = getelementptr inbounds float, ptr %6, i64 %8
  %10 = mul i64 %7, %1
  %11 = getelementptr inbounds float, ptr %6, i64 %10
  %.not.i = icmp eq i64 %7, 0
  br i1 %.not.i, label %_ZNK5faiss14VectorDistanceILNS_10MetricTypeE22EEclEPKfS4_.exit, label %.lr.ph.i

.lr.ph.i:                                         ; preds = %3, %.lr.ph.i
  %.020.i = phi float [ %34, %.lr.ph.i ], [ 0.000000e+00, %3 ]
  %.01819.i = phi i64 [ %35, %.lr.ph.i ], [ 0, %3 ]
  %12 = getelementptr inbounds float, ptr %9, i64 %.01819.i
  %13 = load float, ptr %12, align 4
  %14 = getelementptr inbounds float, ptr %11, i64 %.01819.i
  %15 = load float, ptr %14, align 4
  %16 = fadd float %13, %15
  %17 = fmul float %16, 5.000000e-01
  %18 = fdiv float %17, %13
  %19 = fpext float %18 to double
  %20 = tail call double @log(double noundef %19) #5
  %21 = fdiv float %17, %15
  %22 = fpext float %21 to double
  %23 = tail call double @log(double noundef %22) #5
  %24 = insertelement <2 x float> poison, float %13, i64 0
  %25 = insertelement <2 x float> %24, float %15, i64 1
  %26 = fneg <2 x float> %25
  %27 = fpext <2 x float> %26 to <2 x double>
  %28 = insertelement <2 x double> poison, double %20, i64 0
  %29 = insertelement <2 x double> %28, double %23, i64 1
  %30 = fmul <2 x double> %29, %27
  %31 = fptrunc <2 x double> %30 to <2 x float>
  %shift = shufflevector <2 x float> %31, <2 x float> poison, <2 x i32> <i32 1, i32 poison>
  %32 = fadd <2 x float> %shift, %31
  %33 = extractelement <2 x float> %32, i64 0
  %34 = fadd float %.020.i, %33
  %35 = add nuw i64 %.01819.i, 1
  %36 = load i64, ptr %4, align 8
  %37 = icmp ult i64 %35, %36
  br i1 %37, label %.lr.ph.i, label %._crit_edge.loopexit.i, !llvm.loop !29

._crit_edge.loopexit.i:                           ; preds = %.lr.ph.i
  %38 = fmul float %34, 5.000000e-01
  br label %_ZNK5faiss14VectorDistanceILNS_10MetricTypeE22EEclEPKfS4_.exit

_ZNK5faiss14VectorDistanceILNS_10MetricTypeE22EEclEPKfS4_.exit: ; preds = %3, %._crit_edge.loopexit.i
  %.0.lcssa.i = phi float [ 0.000000e+00, %3 ], [ %38, %._crit_edge.loopexit.i ]
  ret float %.0.lcssa.i
}